target datalayout = "e-m:e-p270:32:32-p271:32:32-p272:64:64-i64:64-i128:128-f80:128-n8:16:32:64-S128"
target triple = "x86_64-pc-linux-gnu"

%struct.asn1_string_st = type { i32, i32, ptr, i64 }

@.str = private unnamed_addr constant [33 x i8] c"../openssl/crypto/x509/v3_skid.c\00", align 1
@__func__.s2i_ASN1_OCTET_STRING = private unnamed_addr constant [22 x i8] c"s2i_ASN1_OCTET_STRING\00", align 1

; Function Attrs: nounwind uwtable
define ptr @s2i_ASN1_OCTET_STRING(ptr noundef %0, ptr noundef %1, ptr noundef %2) #1 {
  %4 = alloca ptr, align 8
  %5 = alloca ptr, align 8
  %6 = alloca ptr, align 8
  %7 = alloca ptr, align 8
  %8 = alloca ptr, align 8
  %9 = alloca i64, align 8
  %10 = alloca i32, align 4
  store ptr %0, ptr %5, align 8, !tbaa !3
  store ptr %1, ptr %6, align 8, !tbaa !16
  store ptr %2, ptr %7, align 8, !tbaa !18
  call void @llvm.lifetime.start.p0(i64 8, ptr %8) #5
  call void @llvm.lifetime.start.p0(i64 8, ptr %9) #5
  %11 = call ptr @ASN1_OCTET_STRING_new()
  store ptr %11, ptr %8, align 8, !tbaa !8
  %12 = icmp eq ptr %11, null
  br i1 %12, label %13, label %14

13:                                               ; preds = %3
  call void @ERR_new()
  call void @ERR_set_debug(ptr noundef @.str, i32 noundef 40, ptr noundef @__func__.s2i_ASN1_OCTET_STRING)
  call void (i32, i32, ptr, ...) @ERR_set_error(i32 noundef 34, i32 noundef 524301, ptr noundef null)
  store ptr null, ptr %4, align 8
  store i32 1, ptr %10, align 4
  br label %28

14:                                               ; preds = %3
  %15 = load ptr, ptr %7, align 8, !tbaa !18
  %16 = call ptr @OPENSSL_hexstr2buf(ptr noundef %15, ptr noundef %9)
  %17 = load ptr, ptr %8, align 8, !tbaa !8
  %18 = getelementptr inbounds nuw %struct.asn1_string_st, ptr %17, i32 0, i32 2
  store ptr %16, ptr %18, align 8, !tbaa !10
  %19 = icmp eq ptr %16, null
  br i1 %19, label %20, label %22

20:                                               ; preds = %14
  %21 = load ptr, ptr %8, align 8, !tbaa !8
  call void @ASN1_OCTET_STRING_free(ptr noundef %21)
  store ptr null, ptr %4, align 8
  store i32 1, ptr %10, align 4
  br label %28

22:                                               ; preds = %14
  %23 = load i64, ptr %9, align 8, !tbaa !56
  %24 = trunc i64 %23 to i32
  %25 = load ptr, ptr %8, align 8, !tbaa !8
  %26 = getelementptr inbounds nuw %struct.asn1_string_st, ptr %25, i32 0, i32 0
  store i32 %24, ptr %26, align 8, !tbaa !15
  %27 = load ptr, ptr %8, align 8, !tbaa !8
  store ptr %27, ptr %4, align 8
  store i32 1, ptr %10, align 4
  br label %28

28:                                               ; preds = %22, %20, %13
  call void @llvm.lifetime.end.p0(i64 8, ptr %9) #5
  call void @llvm.lifetime.end.p0(i64 8, ptr %8) #5
  %29 = load ptr, ptr %4, align 8
  ret ptr %29
}