; Function Attrs: nounwind uwtable
define ptr @s2i_ASN1_OCTET_STRING(ptr noundef readnone captures(none) %0, ptr noundef readnone captures(none) %1, ptr noundef %2) local_unnamed_addr #1 {
  %4 = alloca i64, align 8
  call void @llvm.lifetime.start.p0(i64 8, ptr nonnull %4) #4
  %5 = tail call ptr @ASN1_OCTET_STRING_new() #4
  %6 = icmp eq ptr %5, null
  br i1 %6, label %7, label %8

7:                                                ; preds = %3
  tail call void @ERR_new() #4
  tail call void @ERR_set_debug(ptr noundef nonnull @.str, i32 noundef 40, ptr noundef nonnull @__func__.s2i_ASN1_OCTET_STRING) #4
  tail call void (i32, i32, ptr, ...) @ERR_set_error(i32 noundef 34, i32 noundef 524301, ptr noundef null) #4
  br label %16

8:                                                ; preds = %3
  %9 = call ptr @OPENSSL_hexstr2buf(ptr noundef %2, ptr noundef nonnull %4) #4
  %10 = getelementptr inbounds nuw i8, ptr %5, i64 8
  store ptr %9, ptr %10, align 8, !tbaa !3
  %11 = icmp eq ptr %9, null
  br i1 %11, label %12, label %13

12:                                               ; preds = %8
  call void @ASN1_OCTET_STRING_free(ptr noundef nonnull %5) #4
  br label %16

13:                                               ; preds = %8
  %14 = load i64, ptr %4, align 8, !tbaa !12
  %15 = trunc i64 %14 to i32
  store i32 %15, ptr %5, align 8, !tbaa !11
  br label %16

16:                                               ; preds = %13, %12, %7
  %.0 = phi ptr [ null, %7 ], [ null, %12 ], [ %5, %13 ]
  call void @llvm.lifetime.end.p0(i64 8, ptr nonnull %4) #4
  ret ptr %.0
}